; ModuleID = '19/424.c'
source_filename = "19/424.c"
target datalayout = "e-m:e-p270:32:32-p271:32:32-p272:64:64-i64:64-f80:128-n8:16:32:64-S128"
target triple = "x86_64-pc-linux-gnu"

@.str = private unnamed_addr constant [3 x i8] c"%s\00", align 1

; Function Attrs: noinline nounwind uwtable
define dso_local void @main() #0 {
  %1 = alloca [100 x i8], align 16
  %2 = alloca [100 x i8], align 16
  %3 = alloca [100 x i8], align 16
  %4 = alloca [100 x i8], align 16
  %5 = alloca i8*, align 8
  %6 = alloca i8*, align 8
  %7 = alloca i32, align 4
  store i32 0, i32* %7, align 4
  %8 = getelementptr inbounds [100 x i8], [100 x i8]* %1, i64 0, i64 0
  %9 = call i32 (i8*, ...) bitcast (i32 (...)* @gets to i32 (i8*, ...)*)(i8* %8)
  %10 = getelementptr inbounds [100 x i8], [100 x i8]* %2, i64 0, i64 0
  %11 = call i32 (i8*, ...) bitcast (i32 (...)* @gets to i32 (i8*, ...)*)(i8* %10)
  %12 = getelementptr inbounds [100 x i8], [100 x i8]* %3, i64 0, i64 0
  %13 = call i32 (i8*, ...) bitcast (i32 (...)* @gets to i32 (i8*, ...)*)(i8* %12)
  %14 = getelementptr inbounds [100 x i8], [100 x i8]* %1, i64 0, i64 0
  store i8* %14, i8** %5, align 8
  br label %15

15:                                               ; preds = %67, %0
  %16 = load i8*, i8** %5, align 8
  %17 = getelementptr inbounds i8, i8* %16, i64 -1
  %18 = load i8, i8* %17, align 1
  %19 = sext i8 %18 to i32
  %20 = icmp ne i32 %19, 0
  br i1 %20, label %21, label %70

21:                                               ; preds = %15
  %22 = load i8*, i8** %5, align 8
  %23 = load i8, i8* %22, align 1
  %24 = sext i8 %23 to i32
  %25 = icmp eq i32 %24, 32
  br i1 %25, label %31, label %26

26:                                               ; preds = %21
  %27 = load i8*, i8** %5, align 8
  %28 = load i8, i8* %27, align 1
  %29 = sext i8 %28 to i32
  %30 = icmp eq i32 %29, 0
  br i1 %30, label %31, label %57

31:                                               ; preds = %26, %21
  %32 = getelementptr inbounds [100 x i8], [100 x i8]* %4, i64 0, i64 0
  %33 = load i32, i32* %7, align 4
  %34 = sext i32 %33 to i64
  %35 = getelementptr inbounds i8, i8* %32, i64 %34
  store i8 0, i8* %35, align 1
  %36 = getelementptr inbounds [100 x i8], [100 x i8]* %2, i64 0, i64 0
  %37 = getelementptr inbounds [100 x i8], [100 x i8]* %4, i64 0, i64 0
  %38 = call i32 @strcmp(i8* %36, i8* %37) #3
  %39 = icmp eq i32 %38, 0
  br i1 %39, label %40, label %42

40:                                               ; preds = %31
  %41 = getelementptr inbounds [100 x i8], [100 x i8]* %3, i64 0, i64 0
  store i8* %41, i8** %6, align 8
  br label %44

42:                                               ; preds = %31
  %43 = getelementptr inbounds [100 x i8], [100 x i8]* %4, i64 0, i64 0
  store i8* %43, i8** %6, align 8
  br label %44

44:                                               ; preds = %42, %40
  %45 = load i8*, i8** %5, align 8
  %46 = getelementptr inbounds [100 x i8], [100 x i8]* %4, i64 0, i64 0
  %47 = call i64 @strlen(i8* %46) #3
  %48 = sub i64 0, %47
  %49 = getelementptr inbounds i8, i8* %45, i64 %48
  %50 = getelementptr inbounds [100 x i8], [100 x i8]* %1, i64 0, i64 0
  %51 = icmp ne i8* %49, %50
  br i1 %51, label %52, label %54

52:                                               ; preds = %44
  %53 = call i32 @putchar(i32 32)
  br label %54

54:                                               ; preds = %52, %44
  %55 = load i8*, i8** %6, align 8
  %56 = call i32 (i8*, ...) @printf(i8* getelementptr inbounds ([3 x i8], [3 x i8]* @.str, i64 0, i64 0), i8* %55)
  store i32 0, i32* %7, align 4
  br label %66

57:                                               ; preds = %26
  %58 = load i8*, i8** %5, align 8
  %59 = load i8, i8* %58, align 1
  %60 = getelementptr inbounds [100 x i8], [100 x i8]* %4, i64 0, i64 0
  %61 = load i32, i32* %7, align 4
  %62 = sext i32 %61 to i64
  %63 = getelementptr inbounds i8, i8* %60, i64 %62
  store i8 %59, i8* %63, align 1
  %64 = load i32, i32* %7, align 4
  %65 = add nsw i32 %64, 1
  store i32 %65, i32* %7, align 4
  br label %66

66:                                               ; preds = %57, %54
  br label %67

67:                                               ; preds = %66
  %68 = load i8*, i8** %5, align 8
  %69 = getelementptr inbounds i8, i8* %68, i32 1
  store i8* %69, i8** %5, align 8
  br label %15

70:                                               ; preds = %15
  ret void
}

declare dso_local i32 @gets(...) #1

; Function Attrs: nounwind readonly
declare dso_local i32 @strcmp(i8*, i8*) #2

; Function Attrs: nounwind readonly
declare dso_local i64 @strlen(i8*) #2

declare dso_local i32 @putchar(i32) #1

declare dso_local i32 @printf(i8*, ...) #1


!llvm.module.flags = !{!0}
!llvm.ident = !{!1}

!0 = !{i32 1, !"wchar_size", i32 4}
!1 = !{!"clang version 10.0.0-4ubuntu1 "}
